; Function Attrs: nounwind uwtable
define internal i32 @srt_decode_frame(ptr noundef %0, ptr noundef %1, ptr noundef writeonly captures(none) %2, ptr noundef %3) #1 {
  %5 = alloca %struct.AVBPrint, align 8
  %6 = alloca i64, align 8
  call void @llvm.lifetime.start.p0(i64 1024, ptr nonnull %5) #3
  call void @llvm.lifetime.start.p0(i64 8, ptr nonnull %6) #3
  %7 = call ptr @av_packet_get_side_data(ptr noundef %3, i32 noundef 14, ptr noundef nonnull %6) #3
  %8 = getelementptr inbounds nuw i8, ptr %0, i64 32
  %9 = load ptr, ptr %8, align 8, !tbaa !4
  %10 = icmp ne ptr %7, null
  %11 = load i64, ptr %6, align 8
  %12 = icmp eq i64 %11, 16
  %or.cond = select i1 %10, i1 %12, i1 false
  br i1 %or.cond, label %13, label %21

13:                                               ; preds = %4
  %14 = load i32, ptr %7, align 1, !tbaa !27
  %15 = getelementptr inbounds nuw i8, ptr %7, i64 4
  %16 = load i32, ptr %15, align 1, !tbaa !27
  %17 = getelementptr inbounds nuw i8, ptr %7, i64 8
  %18 = load i32, ptr %17, align 1, !tbaa !27
  %19 = getelementptr inbounds nuw i8, ptr %7, i64 12
  %20 = load i32, ptr %19, align 1, !tbaa !27
  br label %21

21:                                               ; preds = %13, %4
  %.028 = phi i32 [ %16, %13 ], [ -1, %4 ]
  %.027 = phi i32 [ %18, %13 ], [ -1, %4 ]
  %.026 = phi i32 [ %20, %13 ], [ -1, %4 ]
  %.024 = phi i32 [ %14, %13 ], [ -1, %4 ]
  %22 = getelementptr inbounds nuw i8, ptr %3, i64 32
  %23 = load i32, ptr %22, align 8, !tbaa !28
  %24 = icmp slt i32 %23, 1
  br i1 %24, label %72, label %25

25:                                               ; preds = %21
  call void @av_bprint_init(ptr noundef nonnull %5, i32 noundef 0, i32 noundef -1) #3
  %26 = getelementptr inbounds nuw i8, ptr %3, i64 24
  %27 = load ptr, ptr %26, align 8, !tbaa !30
  %28 = or i32 %.024, %.028
  %or.cond.i = icmp sgt i32 %28, -1
  br i1 %or.cond.i, label %29, label %srt_to_ass.exit

29:                                               ; preds = %25
  %30 = or i32 %.026, %.027
  %or.cond3.i = icmp sgt i32 %30, -1
  br i1 %or.cond3.i, label %31, label %47

31:                                               ; preds = %29
  %.not.i = icmp eq i32 %.027, %.024
  %.not36.i = icmp eq i32 %.026, %.028
  %or.cond39.i = and i1 %.not36.i, %.not.i
  %.not37.i = icmp slt i32 %.027, %.024
  %or.cond40.i = or i1 %.not37.i, %or.cond39.i
  %.not38.i = icmp slt i32 %.026, %.028
  %or.cond41.i = or i1 %.not38.i, %or.cond40.i
  br i1 %or.cond41.i, label %47, label %32

32:                                               ; preds = %31
  %33 = sub nsw i32 %.027, %.024
  %34 = sdiv i32 %33, 2
  %35 = add nsw i32 %34, %.024
  %36 = sub nsw i32 %.026, %.028
  %37 = sdiv i32 %36, 2
  %38 = add nsw i32 %37, %.028
  %39 = sext i32 %35 to i64
  %40 = mul nsw i64 %39, 384
  %41 = sdiv i64 %40, 720
  %42 = trunc nsw i64 %41 to i32
  %43 = sext i32 %38 to i64
  %44 = mul nsw i64 %43, 288
  %45 = sdiv i64 %44, 480
  %46 = trunc nsw i64 %45 to i32
  call void (ptr, ptr, ...) @av_bprintf(ptr noundef nonnull %5, ptr noundef nonnull @.str.3, i32 noundef %42, i32 noundef %46) #3
  br label %srt_to_ass.exit

47:                                               ; preds = %31, %29
  %48 = zext nneg i32 %.024 to i64
  %49 = mul nuw nsw i64 %48, 384
  %50 = udiv i64 %49, 720
  %51 = trunc nuw nsw i64 %50 to i32
  %52 = zext nneg i32 %.028 to i64
  %53 = mul nuw nsw i64 %52, 288
  %54 = udiv i64 %53, 480
  %55 = trunc nuw i64 %54 to i32
  call void (ptr, ptr, ...) @av_bprintf(ptr noundef nonnull %5, ptr noundef nonnull @.str.4, i32 noundef %51, i32 noundef %55) #3
  br label %srt_to_ass.exit

srt_to_ass.exit:                                  ; preds = %25, %32, %47
  %56 = call i32 @ff_htmlmarkup_to_ass(ptr noundef nonnull %0, ptr noundef nonnull %5, ptr noundef %27) #3
  %57 = icmp sgt i32 %56, -1
  br i1 %57, label %59, label %.thread

.thread:                                          ; preds = %srt_to_ass.exit
  %58 = call i32 @av_bprint_finalize(ptr noundef nonnull %5, ptr noundef null) #3
  br label %72

59:                                               ; preds = %srt_to_ass.exit
  %60 = load ptr, ptr %5, align 8, !tbaa !31
  %61 = load i32, ptr %9, align 4, !tbaa !33
  %62 = add nsw i32 %61, 1
  store i32 %62, ptr %9, align 4, !tbaa !33
  %63 = call i32 @ff_ass_add_rect(ptr noundef %1, ptr noundef %60, i32 noundef %61, i32 noundef 0, ptr noundef null, ptr noundef null) #3
  %64 = call i32 @av_bprint_finalize(ptr noundef nonnull %5, ptr noundef null) #3
  %65 = icmp slt i32 %63, 0
  br i1 %65, label %72, label %66

66:                                               ; preds = %59
  %67 = getelementptr inbounds nuw i8, ptr %1, i64 12
  %68 = load i32, ptr %67, align 4, !tbaa !35
  %69 = icmp ne i32 %68, 0
  %70 = zext i1 %69 to i32
  store i32 %70, ptr %2, align 4, !tbaa !39
  %71 = load i32, ptr %22, align 8, !tbaa !28
  br label %72

72:                                               ; preds = %.thread, %59, %21, %66
  %.0 = phi i32 [ %71, %66 ], [ %23, %21 ], [ %63, %59 ], [ %56, %.thread ]
  call void @llvm.lifetime.end.p0(i64 8, ptr nonnull %6) #3
  call void @llvm.lifetime.end.p0(i64 1024, ptr nonnull %5) #3
  ret i32 %.0
}